target datalayout = "e-m:e-p270:32:32-p271:32:32-p272:64:64-i64:64-i128:128-f80:128-n8:16:32:64-S128"
target triple = "x86_64-pc-linux-gnu"

%struct.H5D_chk_idx_info_t = type { ptr, ptr, ptr, ptr }
%struct.H5O_storage_chunk_t = type { i32, i64, ptr, %union.anon.4 }
%union.anon.4 = type { %struct.H5O_storage_chunk_btree_t }
%struct.H5O_storage_chunk_btree_t = type { i64, ptr }
%struct.H5O_storage_chunk_earray_t = type { i64, ptr }

@H5D_init_g = external global i8, align 1
@H5_libterm_g = external global i8, align 1
@.str.2 = private unnamed_addr constant [103 x i8] c"generated/home/dtcxzyw/WorkSpace/Projects/compilers/llvm-opt-benchmark/bench/hdf5/hdf5/src/H5Dearray.c\00", align 1
@H5E_DATASET_g = external global i64, align 8
@H5E_CANTCLOSEOBJ_g = external global i64, align 8
@__func__.H5D__earray_idx_close = private unnamed_addr constant [22 x i8] c"H5D__earray_idx_close\00", align 1
@.str.26 = private unnamed_addr constant [33 x i8] c"unable to close extensible array\00", align 1

; Function Attrs: nounwind uwtable
define internal i32 @H5D__earray_idx_close(ptr noundef %0) #0 {
  %2 = alloca ptr, align 8
  %3 = alloca i32, align 4
  %4 = alloca i8, align 1
  store ptr %0, ptr %2, align 8, !tbaa !3
  call void @llvm.lifetime.start.p0(i64 4, ptr %3) #8
  store i32 0, ptr %3, align 4, !tbaa !12
  call void @llvm.lifetime.start.p0(i64 1, ptr %4) #8
  store i8 0, ptr %4, align 1, !tbaa !14
  %5 = load i8, ptr @H5D_init_g, align 1, !tbaa !14, !range !16, !noundef !17
  %6 = trunc i8 %5 to i1
  br i1 %6, label %11, label %7

7:                                                ; preds = %1
  %8 = load i8, ptr @H5_libterm_g, align 1, !tbaa !14, !range !16, !noundef !17
  %9 = trunc i8 %8 to i1
  %10 = xor i1 %9, true
  br label %11

11:                                               ; preds = %7, %1
  %12 = phi i1 [ true, %1 ], [ %10, %7 ]
  %13 = xor i1 %12, true
  %14 = xor i1 %13, true
  %15 = zext i1 %14 to i32
  %16 = sext i32 %15 to i64
  %17 = call i64 @llvm.expect.i64(i64 %16, i64 1)
  %18 = icmp ne i64 %17, 0
  br i1 %18, label %19, label %54

19:                                               ; preds = %11
  %20 = load ptr, ptr %2, align 8, !tbaa !3
  %21 = getelementptr inbounds nuw %struct.H5D_chk_idx_info_t, ptr %20, i32 0, i32 3
  %22 = load ptr, ptr %21, align 8, !tbaa !27
  %23 = getelementptr inbounds nuw %struct.H5O_storage_chunk_t, ptr %22, i32 0, i32 3
  %24 = getelementptr inbounds nuw %struct.H5O_storage_chunk_earray_t, ptr %23, i32 0, i32 1
  %25 = load ptr, ptr %24, align 8, !tbaa !26
  %26 = call i32 @H5EA_close(ptr noundef %25)
  %27 = icmp slt i32 %26, 0
  br i1 %27, label %28, label %47

28:                                               ; preds = %19
  br label %29

29:                                               ; preds = %28
  br label %30

30:                                               ; preds = %29
  br label %31

31:                                               ; preds = %30
  %32 = load i64, ptr @H5E_DATASET_g, align 8, !tbaa !10
  %33 = load i64, ptr @H5E_CANTCLOSEOBJ_g, align 8, !tbaa !10
  %34 = call i32 (ptr, ptr, i32, i64, i64, ptr, ...) @H5E_printf_stack(ptr noundef @.str.2, ptr noundef @__func__.H5D__earray_idx_close, i32 noundef 941, i64 noundef %32, i64 noundef %33, ptr noundef @.str.26)
  br label %35

35:                                               ; preds = %31
  br label %36

36:                                               ; preds = %35
  store i8 1, ptr %4, align 1, !tbaa !14
  %37 = load i8, ptr %4, align 1, !tbaa !14, !range !16, !noundef !17
  %38 = trunc i8 %37 to i1
  %39 = zext i1 %38 to i8
  store i8 %39, ptr %4, align 1, !tbaa !14
  br label %40

40:                                               ; preds = %36
  br label %41

41:                                               ; preds = %40
  br label %42

42:                                               ; preds = %41
  store i32 -1, ptr %3, align 4, !tbaa !12
  br label %53

43:                                               ; No predecessors!
  br label %44

44:                                               ; preds = %43
  br label %45

45:                                               ; preds = %44
  br label %46

46:                                               ; preds = %45
  br label %47

47:                                               ; preds = %46, %19
  %48 = load ptr, ptr %2, align 8, !tbaa !3
  %49 = getelementptr inbounds nuw %struct.H5D_chk_idx_info_t, ptr %48, i32 0, i32 3
  %50 = load ptr, ptr %49, align 8, !tbaa !27
  %51 = getelementptr inbounds nuw %struct.H5O_storage_chunk_t, ptr %50, i32 0, i32 3
  %52 = getelementptr inbounds nuw %struct.H5O_storage_chunk_earray_t, ptr %51, i32 0, i32 1
  store ptr null, ptr %52, align 8, !tbaa !26
  br label %53

53:                                               ; preds = %47, %42
  br label %54

54:                                               ; preds = %53, %11
  %55 = load i32, ptr %3, align 4, !tbaa !12
  call void @llvm.lifetime.end.p0(i64 1, ptr %4) #8
  call void @llvm.lifetime.end.p0(i64 4, ptr %3) #8
  ret i32 %55
}