; Function Attrs: nounwind uwtable
define internal range(i32 -1, 1) i32 @H5D__earray_idx_close(ptr noundef readonly captures(none) %0) #0 {
  %2 = load i8, ptr @H5D_init_g, align 1, !tbaa !3, !range !7, !noundef !8
  %3 = trunc nuw i8 %2 to i1
  %4 = load i8, ptr @H5_libterm_g, align 1, !range !7
  %5 = trunc nuw i8 %4 to i1
  %6 = xor i1 %5, true
  %7 = select i1 %3, i1 true, i1 %6
  br i1 %7, label %8, label %22, !prof !9

8:                                                ; preds = %1
  %9 = getelementptr inbounds nuw i8, ptr %0, i64 24
  %10 = load ptr, ptr %9, align 8, !tbaa !22
  %11 = getelementptr inbounds nuw i8, ptr %10, i64 32
  %12 = load ptr, ptr %11, align 8, !tbaa !21
  %13 = tail call i32 @H5EA_close(ptr noundef %12) #11
  %14 = icmp slt i32 %13, 0
  br i1 %14, label %15, label %19

15:                                               ; preds = %8
  %16 = load i64, ptr @H5E_DATASET_g, align 8, !tbaa !10
  %17 = load i64, ptr @H5E_CANTCLOSEOBJ_g, align 8, !tbaa !10
  %18 = tail call i32 (ptr, ptr, i32, i64, i64, ptr, ...) @H5E_printf_stack(ptr noundef nonnull @.str.2, ptr noundef nonnull @__func__.H5D__earray_idx_close, i32 noundef 941, i64 noundef %16, i64 noundef %17, ptr noundef nonnull @.str.26) #11
  br label %22

19:                                               ; preds = %8
  %20 = load ptr, ptr %9, align 8, !tbaa !22
  %21 = getelementptr inbounds nuw i8, ptr %20, i64 32
  store ptr null, ptr %21, align 8, !tbaa !21
  br label %22

22:                                               ; preds = %15, %19, %1
  %.0 = phi i32 [ -1, %15 ], [ 0, %19 ], [ 0, %1 ]
  ret i32 %.0
}